; Function Attrs: nofree nounwind uwtable
define internal noalias noundef ptr @newIpair(ptr noundef readonly captures(none) %0, ptr readnone captures(none) %1) #10 {
  %3 = tail call noalias dereferenceable_or_null(24) ptr @calloc(i64 noundef 1, i64 noundef range(i64 4, 57) 24) #19
  %4 = icmp eq ptr %3, null
  br i1 %4, label %5, label %gv_alloc.exit

5:                                                ; preds = %2
  %6 = load ptr, ptr @stderr, align 8, !tbaa !27
  %7 = tail call i32 (ptr, ptr, ...) @fprintf(ptr noundef %6, ptr noundef nonnull @.str.1, i64 noundef 24) #20
  tail call fastcc void @graphviz_exit() #21
  unreachable

gv_alloc.exit:                                    ; preds = %2
  %8 = getelementptr inbounds nuw i8, ptr %0, i64 16
  %9 = load i32, ptr %8, align 8, !tbaa !120
  %10 = getelementptr inbounds nuw i8, ptr %3, i64 16
  store i32 %9, ptr %10, align 8, !tbaa !120
  %11 = getelementptr inbounds nuw i8, ptr %0, i64 20
  %12 = load i32, ptr %11, align 4, !tbaa !122
  %13 = getelementptr inbounds nuw i8, ptr %3, i64 20
  store i32 %12, ptr %13, align 4, !tbaa !122
  ret ptr %3
}